target datalayout = "e-m:e-p270:32:32-p271:32:32-p272:64:64-i64:64-i128:128-f80:128-n8:16:32:64-S128"
target triple = "x86_64-pc-linux-gnu"

%struct.GenerationContext = type { %struct.MemoryContextData, i32, i32, i32, i32, ptr, ptr, %struct.dlist_head }
%struct.MemoryContextData = type { i32, i8, i8, i64, ptr, ptr, ptr, ptr, ptr, ptr, ptr, ptr }
%struct.dlist_head = type { %struct.dlist_node }
%struct.dlist_node = type { ptr, ptr }
%struct.GenerationBlock = type { %struct.dlist_node, ptr, i64, i32, i32, ptr, ptr }
%struct.MemoryChunk = type { i64 }

; Function Attrs: inlinehint nounwind uwtable
define internal void @MemoryChunkSetHdrMask(ptr noundef %0, ptr noundef %1, i64 noundef %2, i32 noundef %3) #5 {
  %5 = alloca ptr, align 8
  %6 = alloca ptr, align 8
  %7 = alloca i64, align 8
  %8 = alloca i32, align 4
  %9 = alloca i64, align 8
  store ptr %0, ptr %5, align 8
  store ptr %1, ptr %6, align 8
  store i64 %2, ptr %7, align 8
  store i32 %3, ptr %8, align 4
  call void @llvm.lifetime.start.p0(i64 8, ptr %9) #12
  %10 = load ptr, ptr %5, align 8
  %11 = load ptr, ptr %6, align 8
  %12 = ptrtoint ptr %10 to i64
  %13 = ptrtoint ptr %11 to i64
  %14 = sub i64 %12, %13
  store i64 %14, ptr %9, align 8
  %15 = load i64, ptr %9, align 8
  %16 = shl i64 %15, 34
  %17 = load i64, ptr %7, align 8
  %18 = shl i64 %17, 5
  %19 = or i64 %16, %18
  %20 = load i32, ptr %8, align 4
  %21 = zext i32 %20 to i64
  %22 = or i64 %19, %21
  %23 = load ptr, ptr %5, align 8
  %24 = getelementptr inbounds nuw %struct.MemoryChunk, ptr %23, i32 0, i32 0
  store i64 %22, ptr %24, align 8
  call void @llvm.lifetime.end.p0(i64 8, ptr %9) #12
  ret void
}

; Function Attrs: inlinehint nounwind uwtable
define internal void @dlist_init(ptr noundef %0) #5 {
  %2 = alloca ptr, align 8
  store ptr %0, ptr %2, align 8
  %3 = load ptr, ptr %2, align 8
  %4 = getelementptr inbounds nuw %struct.dlist_head, ptr %3, i32 0, i32 0
  %5 = load ptr, ptr %2, align 8
  %6 = getelementptr inbounds nuw %struct.dlist_head, ptr %5, i32 0, i32 0
  %7 = getelementptr inbounds nuw %struct.dlist_node, ptr %6, i32 0, i32 0
  store ptr %4, ptr %7, align 8
  %8 = load ptr, ptr %2, align 8
  %9 = getelementptr inbounds nuw %struct.dlist_head, ptr %8, i32 0, i32 0
  %10 = getelementptr inbounds nuw %struct.dlist_node, ptr %9, i32 0, i32 1
  store ptr %4, ptr %10, align 8
  ret void
}

; Function Attrs: inlinehint nounwind uwtable
define internal i32 @pg_leftmost_one_pos64(i64 noundef %0) #5 {
  %2 = alloca i64, align 8
  store i64 %0, ptr %2, align 8
  %3 = load i64, ptr %2, align 8
  %4 = call i64 @llvm.ctlz.i64(i64 %3, i1 true)
  %5 = trunc i64 %4 to i32
  %6 = sub i32 63, %5
  ret i32 %6
}

; Function Attrs: inlinehint nounwind uwtable
define internal ptr @GenerationAllocChunkFromBlock(ptr noundef %0, ptr noundef %1, i64 noundef %2, i64 noundef %3) #5 {
  %5 = alloca ptr, align 8
  %6 = alloca ptr, align 8
  %7 = alloca i64, align 8
  %8 = alloca i64, align 8
  %9 = alloca ptr, align 8
  store ptr %0, ptr %5, align 8
  store ptr %1, ptr %6, align 8
  store i64 %2, ptr %7, align 8
  store i64 %3, ptr %8, align 8
  call void @llvm.lifetime.start.p0(i64 8, ptr %9) #12
  %10 = load ptr, ptr %6, align 8
  %11 = getelementptr inbounds nuw %struct.GenerationBlock, ptr %10, i32 0, i32 5
  %12 = load ptr, ptr %11, align 8
  store ptr %12, ptr %9, align 8
  br label %13

13:                                               ; preds = %4
  br label %14

14:                                               ; preds = %13
  br label %15

15:                                               ; preds = %14
  %16 = load ptr, ptr %6, align 8
  %17 = getelementptr inbounds nuw %struct.GenerationBlock, ptr %16, i32 0, i32 3
  %18 = load i32, ptr %17, align 8
  %19 = add i32 %18, 1
  store i32 %19, ptr %17, align 8
  %20 = load i64, ptr %8, align 8
  %21 = add i64 8, %20
  %22 = load ptr, ptr %6, align 8
  %23 = getelementptr inbounds nuw %struct.GenerationBlock, ptr %22, i32 0, i32 5
  %24 = load ptr, ptr %23, align 8
  %25 = getelementptr inbounds nuw i8, ptr %24, i64 %21
  store ptr %25, ptr %23, align 8
  %26 = load ptr, ptr %9, align 8
  %27 = load ptr, ptr %6, align 8
  %28 = load i64, ptr %8, align 8
  call void @MemoryChunkSetHdrMask(ptr noundef %26, ptr noundef %27, i64 noundef %28, i32 noundef 4)
  br label %29

29:                                               ; preds = %15
  br label %30

30:                                               ; preds = %29
  br label %31

31:                                               ; preds = %30
  br label %32

32:                                               ; preds = %31
  br label %33

33:                                               ; preds = %32
  br label %34

34:                                               ; preds = %33
  %35 = load ptr, ptr %9, align 8
  %36 = getelementptr inbounds nuw i8, ptr %35, i64 8
  call void @llvm.lifetime.end.p0(i64 8, ptr %9) #12
  ret ptr %36
}

; Function Attrs: inlinehint nounwind uwtable
define internal void @dlist_push_head(ptr noundef %0, ptr noundef %1) #5 {
  %3 = alloca ptr, align 8
  %4 = alloca ptr, align 8
  store ptr %0, ptr %3, align 8
  store ptr %1, ptr %4, align 8
  %5 = load ptr, ptr %3, align 8
  %6 = getelementptr inbounds nuw %struct.dlist_head, ptr %5, i32 0, i32 0
  %7 = getelementptr inbounds nuw %struct.dlist_node, ptr %6, i32 0, i32 1
  %8 = load ptr, ptr %7, align 8
  %9 = icmp eq ptr %8, null
  br i1 %9, label %10, label %12

10:                                               ; preds = %2
  %11 = load ptr, ptr %3, align 8
  call void @dlist_init(ptr noundef %11)
  br label %12

12:                                               ; preds = %10, %2
  %13 = load ptr, ptr %3, align 8
  %14 = getelementptr inbounds nuw %struct.dlist_head, ptr %13, i32 0, i32 0
  %15 = getelementptr inbounds nuw %struct.dlist_node, ptr %14, i32 0, i32 1
  %16 = load ptr, ptr %15, align 8
  %17 = load ptr, ptr %4, align 8
  %18 = getelementptr inbounds nuw %struct.dlist_node, ptr %17, i32 0, i32 1
  store ptr %16, ptr %18, align 8
  %19 = load ptr, ptr %3, align 8
  %20 = getelementptr inbounds nuw %struct.dlist_head, ptr %19, i32 0, i32 0
  %21 = load ptr, ptr %4, align 8
  %22 = getelementptr inbounds nuw %struct.dlist_node, ptr %21, i32 0, i32 0
  store ptr %20, ptr %22, align 8
  %23 = load ptr, ptr %4, align 8
  %24 = load ptr, ptr %4, align 8
  %25 = getelementptr inbounds nuw %struct.dlist_node, ptr %24, i32 0, i32 1
  %26 = load ptr, ptr %25, align 8
  %27 = getelementptr inbounds nuw %struct.dlist_node, ptr %26, i32 0, i32 0
  store ptr %23, ptr %27, align 8
  %28 = load ptr, ptr %4, align 8
  %29 = load ptr, ptr %3, align 8
  %30 = getelementptr inbounds nuw %struct.dlist_head, ptr %29, i32 0, i32 0
  %31 = getelementptr inbounds nuw %struct.dlist_node, ptr %30, i32 0, i32 1
  store ptr %28, ptr %31, align 8
  ret void
}

; Function Attrs: inlinehint nounwind uwtable
define internal void @GenerationBlockInit(ptr noundef %0, ptr noundef %1, i64 noundef %2) #5 {
  %4 = alloca ptr, align 8
  %5 = alloca ptr, align 8
  %6 = alloca i64, align 8
  store ptr %0, ptr %4, align 8
  store ptr %1, ptr %5, align 8
  store i64 %2, ptr %6, align 8
  %7 = load ptr, ptr %4, align 8
  %8 = load ptr, ptr %5, align 8
  %9 = getelementptr inbounds nuw %struct.GenerationBlock, ptr %8, i32 0, i32 1
  store ptr %7, ptr %9, align 8
  %10 = load i64, ptr %6, align 8
  %11 = load ptr, ptr %5, align 8
  %12 = getelementptr inbounds nuw %struct.GenerationBlock, ptr %11, i32 0, i32 2
  store i64 %10, ptr %12, align 8
  %13 = load ptr, ptr %5, align 8
  %14 = getelementptr inbounds nuw %struct.GenerationBlock, ptr %13, i32 0, i32 3
  store i32 0, ptr %14, align 8
  %15 = load ptr, ptr %5, align 8
  %16 = getelementptr inbounds nuw %struct.GenerationBlock, ptr %15, i32 0, i32 4
  store i32 0, ptr %16, align 4
  %17 = load ptr, ptr %5, align 8
  %18 = getelementptr inbounds nuw i8, ptr %17, i64 56
  %19 = load ptr, ptr %5, align 8
  %20 = getelementptr inbounds nuw %struct.GenerationBlock, ptr %19, i32 0, i32 5
  store ptr %18, ptr %20, align 8
  %21 = load ptr, ptr %5, align 8
  %22 = load i64, ptr %6, align 8
  %23 = getelementptr inbounds nuw i8, ptr %21, i64 %22
  %24 = load ptr, ptr %5, align 8
  %25 = getelementptr inbounds nuw %struct.GenerationBlock, ptr %24, i32 0, i32 6
  store ptr %23, ptr %25, align 8
  br label %26

26:                                               ; preds = %3
  br label %27

27:                                               ; preds = %26
  ret void
}

; Function Attrs: inlinehint nounwind uwtable
define internal i64 @pg_nextpower2_64(i64 noundef %0) #5 {
  %2 = alloca i64, align 8
  %3 = alloca i64, align 8
  store i64 %0, ptr %3, align 8
  %4 = load i64, ptr %3, align 8
  %5 = load i64, ptr %3, align 8
  %6 = sub i64 %5, 1
  %7 = and i64 %4, %6
  %8 = icmp eq i64 %7, 0
  br i1 %8, label %9, label %11

9:                                                ; preds = %1
  %10 = load i64, ptr %3, align 8
  store i64 %10, ptr %2, align 8
  br label %17

11:                                               ; preds = %1
  %12 = load i64, ptr %3, align 8
  %13 = call i32 @pg_leftmost_one_pos64(i64 noundef %12)
  %14 = add i32 %13, 1
  %15 = zext i32 %14 to i64
  %16 = shl i64 1, %15
  store i64 %16, ptr %2, align 8
  br label %17

17:                                               ; preds = %11, %9
  %18 = load i64, ptr %2, align 8
  ret i64 %18
}

; Function Attrs: noinline nounwind uwtable
define internal ptr @GenerationAllocFromNewBlock(ptr noundef %0, i64 noundef %1, i32 noundef %2, i64 noundef %3) #7 {
  %5 = alloca ptr, align 8
  %6 = alloca ptr, align 8
  %7 = alloca i64, align 8
  %8 = alloca i32, align 4
  %9 = alloca i64, align 8
  %10 = alloca ptr, align 8
  %11 = alloca ptr, align 8
  %12 = alloca i64, align 8
  %13 = alloca i64, align 8
  %14 = alloca i32, align 4
  store ptr %0, ptr %6, align 8
  store i64 %1, ptr %7, align 8
  store i32 %2, ptr %8, align 4
  store i64 %3, ptr %9, align 8
  call void @llvm.lifetime.start.p0(i64 8, ptr %10) #12
  %15 = load ptr, ptr %6, align 8
  store ptr %15, ptr %10, align 8
  call void @llvm.lifetime.start.p0(i64 8, ptr %11) #12
  call void @llvm.lifetime.start.p0(i64 8, ptr %12) #12
  call void @llvm.lifetime.start.p0(i64 8, ptr %13) #12
  %16 = load ptr, ptr %10, align 8
  %17 = getelementptr inbounds nuw %struct.GenerationContext, ptr %16, i32 0, i32 3
  %18 = load i32, ptr %17, align 8
  %19 = zext i32 %18 to i64
  store i64 %19, ptr %12, align 8
  %20 = load ptr, ptr %10, align 8
  %21 = getelementptr inbounds nuw %struct.GenerationContext, ptr %20, i32 0, i32 3
  %22 = load i32, ptr %21, align 8
  %23 = shl i32 %22, 1
  store i32 %23, ptr %21, align 8
  %24 = load ptr, ptr %10, align 8
  %25 = getelementptr inbounds nuw %struct.GenerationContext, ptr %24, i32 0, i32 3
  %26 = load i32, ptr %25, align 8
  %27 = load ptr, ptr %10, align 8
  %28 = getelementptr inbounds nuw %struct.GenerationContext, ptr %27, i32 0, i32 2
  %29 = load i32, ptr %28, align 4
  %30 = icmp ugt i32 %26, %29
  br i1 %30, label %31, label %37

31:                                               ; preds = %4
  %32 = load ptr, ptr %10, align 8
  %33 = getelementptr inbounds nuw %struct.GenerationContext, ptr %32, i32 0, i32 2
  %34 = load i32, ptr %33, align 4
  %35 = load ptr, ptr %10, align 8
  %36 = getelementptr inbounds nuw %struct.GenerationContext, ptr %35, i32 0, i32 3
  store i32 %34, ptr %36, align 8
  br label %37

37:                                               ; preds = %31, %4
  %38 = load i64, ptr %9, align 8
  %39 = add i64 %38, 8
  %40 = add i64 %39, 56
  store i64 %40, ptr %13, align 8
  %41 = load i64, ptr %12, align 8
  %42 = load i64, ptr %13, align 8
  %43 = icmp ult i64 %41, %42
  br i1 %43, label %44, label %47

44:                                               ; preds = %37
  %45 = load i64, ptr %13, align 8
  %46 = call i64 @pg_nextpower2_64(i64 noundef %45)
  store i64 %46, ptr %12, align 8
  br label %47

47:                                               ; preds = %44, %37
  %48 = load i64, ptr %12, align 8
  %49 = call noalias ptr @malloc(i64 noundef %48) #13
  store ptr %49, ptr %11, align 8
  %50 = load ptr, ptr %11, align 8
  %51 = icmp eq ptr %50, null
  br i1 %51, label %52, label %57

52:                                               ; preds = %47
  %53 = load ptr, ptr %6, align 8
  %54 = load i64, ptr %7, align 8
  %55 = load i32, ptr %8, align 4
  %56 = call ptr @MemoryContextAllocationFailure(ptr noundef %53, i64 noundef %54, i32 noundef %55)
  store ptr %56, ptr %5, align 8
  store i32 1, ptr %14, align 4
  br label %78

57:                                               ; preds = %47
  %58 = load i64, ptr %12, align 8
  %59 = load ptr, ptr %6, align 8
  %60 = getelementptr inbounds nuw %struct.MemoryContextData, ptr %59, i32 0, i32 3
  %61 = load i64, ptr %60, align 8
  %62 = add i64 %61, %58
  store i64 %62, ptr %60, align 8
  %63 = load ptr, ptr %10, align 8
  %64 = load ptr, ptr %11, align 8
  %65 = load i64, ptr %12, align 8
  call void @GenerationBlockInit(ptr noundef %63, ptr noundef %64, i64 noundef %65)
  %66 = load ptr, ptr %10, align 8
  %67 = getelementptr inbounds nuw %struct.GenerationContext, ptr %66, i32 0, i32 7
  %68 = load ptr, ptr %11, align 8
  %69 = getelementptr inbounds nuw %struct.GenerationBlock, ptr %68, i32 0, i32 0
  call void @dlist_push_head(ptr noundef %67, ptr noundef %69)
  %70 = load ptr, ptr %11, align 8
  %71 = load ptr, ptr %10, align 8
  %72 = getelementptr inbounds nuw %struct.GenerationContext, ptr %71, i32 0, i32 5
  store ptr %70, ptr %72, align 8
  %73 = load ptr, ptr %6, align 8
  %74 = load ptr, ptr %11, align 8
  %75 = load i64, ptr %7, align 8
  %76 = load i64, ptr %9, align 8
  %77 = call ptr @GenerationAllocChunkFromBlock(ptr noundef %73, ptr noundef %74, i64 noundef %75, i64 noundef %76)
  store ptr %77, ptr %5, align 8
  store i32 1, ptr %14, align 4
  br label %78

78:                                               ; preds = %57, %52
  call void @llvm.lifetime.end.p0(i64 8, ptr %13) #12
  call void @llvm.lifetime.end.p0(i64 8, ptr %12) #12
  call void @llvm.lifetime.end.p0(i64 8, ptr %11) #12
  call void @llvm.lifetime.end.p0(i64 8, ptr %10) #12
  %79 = load ptr, ptr %5, align 8
  ret ptr %79
}