; Function Attrs: noinline nounwind uwtable
define internal fastcc ptr @GenerationAllocFromNewBlock(ptr noundef %0, i64 noundef %1, i32 noundef %2, i64 noundef range(i64 0, 4294967296) %3) unnamed_addr #6 {
  %5 = getelementptr inbounds nuw i8, ptr %0, i64 88
  %6 = load i32, ptr %5, align 8
  %7 = zext i32 %6 to i64
  %8 = shl i32 %6, 1
  %9 = getelementptr inbounds nuw i8, ptr %0, i64 84
  %10 = load i32, ptr %9, align 4
  %spec.store.select = tail call i32 @llvm.umin.i32(i32 %8, i32 %10)
  store i32 %spec.store.select, ptr %5, align 8
  %11 = add nuw nsw i64 %3, 64
  %12 = icmp samesign ugt i64 %11, %7
  br i1 %12, label %13, label %19

13:                                               ; preds = %4
  %14 = tail call range(i64 1, 34) i64 @llvm.ctpop.i64(i64 range(i64 64, 4294967360) %11)
  %15 = icmp samesign ult i64 %14, 2
  %16 = tail call range(i64 31, 65) i64 @llvm.ctlz.i64(i64 range(i64 64, 4294967360) %11, i1 true)
  %17 = sub nuw nsw i64 64, %16
  %18 = shl nuw nsw i64 1, %17
  %.0.i = select i1 %15, i64 %11, i64 %18
  br label %19

19:                                               ; preds = %13, %4
  %.029 = phi i64 [ %.0.i, %13 ], [ %7, %4 ]
  %20 = tail call noalias ptr @malloc(i64 noundef %.029) #14
  %21 = icmp eq ptr %20, null
  br i1 %21, label %22, label %24

22:                                               ; preds = %19
  %23 = tail call ptr @MemoryContextAllocationFailure(ptr noundef nonnull %0, i64 noundef %1, i32 noundef %2) #15
  br label %57

24:                                               ; preds = %19
  %25 = getelementptr inbounds nuw i8, ptr %0, i64 8
  %26 = load i64, ptr %25, align 8
  %27 = add i64 %26, %.029
  store i64 %27, ptr %25, align 8
  %28 = getelementptr inbounds nuw i8, ptr %20, i64 16
  store ptr %0, ptr %28, align 8
  %29 = getelementptr inbounds nuw i8, ptr %20, i64 24
  store i64 %.029, ptr %29, align 8
  %30 = getelementptr inbounds nuw i8, ptr %20, i64 32
  store i32 0, ptr %30, align 8
  %31 = getelementptr inbounds nuw i8, ptr %20, i64 36
  store i32 0, ptr %31, align 4
  %32 = getelementptr inbounds nuw i8, ptr %20, i64 56
  %33 = getelementptr inbounds nuw i8, ptr %20, i64 40
  store ptr %32, ptr %33, align 8
  %34 = getelementptr inbounds nuw i8, ptr %20, i64 %.029
  %35 = getelementptr inbounds nuw i8, ptr %20, i64 48
  store ptr %34, ptr %35, align 8
  %36 = getelementptr inbounds nuw i8, ptr %0, i64 112
  %37 = getelementptr inbounds nuw i8, ptr %0, i64 120
  %38 = load ptr, ptr %37, align 8
  %39 = icmp eq ptr %38, null
  br i1 %39, label %40, label %dlist_push_head.exit

40:                                               ; preds = %24
  store ptr %36, ptr %36, align 8
  br label %dlist_push_head.exit

dlist_push_head.exit:                             ; preds = %24, %40
  %41 = phi ptr [ %36, %40 ], [ %38, %24 ]
  %42 = getelementptr inbounds nuw i8, ptr %20, i64 8
  store ptr %41, ptr %42, align 8
  store ptr %36, ptr %20, align 8
  store ptr %20, ptr %41, align 8
  store ptr %20, ptr %37, align 8
  %43 = getelementptr inbounds nuw i8, ptr %0, i64 96
  store ptr %20, ptr %43, align 8
  %44 = load ptr, ptr %33, align 8
  %45 = load i32, ptr %30, align 8
  %46 = add i32 %45, 1
  store i32 %46, ptr %30, align 8
  %47 = getelementptr inbounds nuw i8, ptr %44, i64 %3
  %48 = getelementptr inbounds nuw i8, ptr %47, i64 8
  store ptr %48, ptr %33, align 8
  %49 = ptrtoint ptr %44 to i64
  %50 = ptrtoint ptr %20 to i64
  %51 = sub i64 %49, %50
  %52 = shl i64 %51, 34
  %53 = shl nuw nsw i64 %3, 5
  %54 = or i64 %53, %52
  %55 = or disjoint i64 %54, 4
  store i64 %55, ptr %44, align 8
  %56 = getelementptr inbounds nuw i8, ptr %44, i64 8
  br label %57

57:                                               ; preds = %dlist_push_head.exit, %22
  %.0 = phi ptr [ %23, %22 ], [ %56, %dlist_push_head.exit ]
  ret ptr %.0
}